target datalayout = "e-m:e-p270:32:32-p271:32:32-p272:64:64-i64:64-i128:128-f80:128-n8:16:32:64-S128"
target triple = "x86_64-pc-linux-gnu"

%struct.Mv = type { i32, i32 }
%struct.VVCLocalContext = type { i8, i8, i8, i8, i32, i32, [4 x i8], [3276800 x i8], [16384 x i16], [16384 x i16], [16384 x i16], [32768 x i8], [332800 x i8], [368640 x i8], [368640 x i8], [17424 x i32], %struct.anon, %struct.anon.0, ptr, [2 x [1024 x %struct.ReconstructedArea]], [2 x i32], %struct.NeighbourAvailable, i32, ptr, ptr, ptr, ptr }
%struct.anon = type { i32, i8, i32, i32, i32, [3 x i32], i32, i32, i32, i32, i32, i32 }
%struct.anon.0 = type { i32, i32, i32 }
%struct.ReconstructedArea = type { i32, i32, i32, i32 }
%struct.NeighbourAvailable = type { i32, i32, i32, i32, i32 }
%struct.PredWeightTable = type { [2 x i8], [2 x i8], [2 x [2 x [15 x i8]]], [2 x [3 x [15 x i16]]], [2 x [3 x [15 x i16]]] }
%struct.VVCFrameContext = type { ptr, [17 x %struct.VVCFrame], ptr, ptr, %struct.VVCFrameParamSets, ptr, i32, i32, ptr, %struct.VVCDSPContext, %struct.VideoDSPContext, ptr, i64, ptr, ptr, ptr, ptr, %struct.anon.1 }
%struct.VVCFrame = type { ptr, ptr, ptr, ptr, ptr, ptr, i32, i32, i32, %struct.VVCWindow, i32, i32, ptr, ptr, i16, i8, ptr }
%struct.VVCWindow = type { i16, i16, i16, i16 }
%struct.VVCFrameParamSets = type { ptr, ptr, %struct.VVCPH, [8 x ptr], %struct.VVCLMCS, ptr }
%struct.VVCPH = type { ptr, ptr, i32, i32, i8, [3 x i16], i8, [3 x i16], %struct.PredWeightTable }
%struct.VVCLMCS = type { i8, i8, %union.anon, %union.anon, [17 x i16], [16 x i16] }
%union.anon = type { [4096 x i16] }
%struct.VVCDSPContext = type { %struct.VVCInterDSPContext, %struct.VVCIntraDSPContext, %struct.VVCItxDSPContext, %struct.VVCLMCSDSPContext, %struct.VVCLFDSPContext, %struct.VVCSAODSPContext, %struct.VVCALFDSPContext }
%struct.VVCInterDSPContext = type { [2 x [7 x [2 x [2 x ptr]]]], [2 x [7 x [2 x [2 x ptr]]]], [2 x [7 x [2 x [2 x ptr]]]], [2 x [7 x ptr]], [2 x [7 x ptr]], [2 x [7 x ptr]], ptr, ptr, ptr, ptr, ptr, ptr, ptr, ptr, ptr, ptr, ptr, [2 x [2 x ptr]] }
%struct.VVCIntraDSPContext = type { ptr, ptr, ptr, ptr, ptr, ptr, ptr, ptr, ptr, ptr }
%struct.VVCItxDSPContext = type { ptr, ptr, [3 x [6 x ptr]], ptr, ptr }
%struct.VVCLMCSDSPContext = type { ptr }
%struct.VVCLFDSPContext = type { [2 x ptr], [2 x ptr], [2 x ptr] }
%struct.VVCSAODSPContext = type { [9 x ptr], [9 x ptr], [2 x ptr] }
%struct.VVCALFDSPContext = type { [2 x ptr], ptr, ptr, ptr }
%struct.VideoDSPContext = type { ptr, ptr }
%struct.anon.1 = type { ptr, ptr, ptr, ptr, [2 x ptr], [2 x ptr], [2 x ptr], [2 x ptr], [2 x ptr], [3 x ptr], ptr, ptr, [2 x ptr], ptr, ptr, [2 x ptr], ptr, ptr, ptr, [2 x ptr], ptr, [3 x ptr], ptr, [2 x ptr], [2 x ptr], [2 x ptr], [2 x [3 x ptr]], [2 x ptr], [2 x ptr], [3 x ptr], [3 x ptr], [3 x [2 x ptr]], [3 x [2 x ptr]], ptr, ptr, ptr, [3 x ptr], %struct.anon.2 }
%struct.anon.2 = type { i32, i32, i32, i32, i32, i32, i32, i32, i32, i32, i32, i32 }
%struct.VVCPPS = type { ptr, [3 x i8], [6 x [3 x i8]], i16, i16, [1000 x i16], [1000 x i16], i16, i16, i16, i16, i32, i16, i16, i16, i16, ptr, ptr, ptr, ptr, ptr, i16, i16, i16, i16, i16, [1000 x i16], [1000 x i16], [1000 x i16], [1000 x i16] }
%struct.MvField = type { [2 x %struct.Mv], [2 x i8], i8, i8, i8, i8 }
%struct.CodingUnit = type { i32, i32, i32, i32, i32, i32, i32, i8, i8, i8, i8, i32, i32, i8, i8, i8, i8, i8, i32, i32, i32, i32, i32, i32, [3 x i32], [3 x i32], %struct.anon.3, [4 x i8], [3 x %struct.Palette], [4 x i8], %struct.PredictionUnit, ptr }
%struct.anon.3 = type { ptr, ptr }
%struct.Palette = type { i8, [63 x i16] }
%struct.PredictionUnit = type { i8, i8, i8, i8, i8, i8, [2 x %struct.MvField], i32, %struct.MotionInfo, i8, i8, [2 x [16 x i16]], [2 x [16 x i16]], [2 x i32], [4 x i8] }
%struct.MotionInfo = type { i32, [2 x i8], i8, i8, i32, [2 x [3 x %struct.Mv]], i32, i32 }

; Function Attrs: nounwind uwtable
define void @ff_vvc_set_mvf(ptr noundef %0, i32 noundef %1, i32 noundef %2, i32 noundef %3, i32 noundef %4, ptr noundef %5) #0 {
  %7 = alloca ptr, align 8
  %8 = alloca i32, align 4
  %9 = alloca i32, align 4
  %10 = alloca i32, align 4
  %11 = alloca i32, align 4
  %12 = alloca ptr, align 8
  %13 = alloca ptr, align 8
  %14 = alloca ptr, align 8
  %15 = alloca i32, align 4
  %16 = alloca i32, align 4
  %17 = alloca i32, align 4
  %18 = alloca i32, align 4
  %19 = alloca i32, align 4
  %20 = alloca i32, align 4
  %21 = alloca i32, align 4
  store ptr %0, ptr %7, align 8, !tbaa !14
  store i32 %1, ptr %8, align 4, !tbaa !9
  store i32 %2, ptr %9, align 4, !tbaa !9
  store i32 %3, ptr %10, align 4, !tbaa !9
  store i32 %4, ptr %11, align 4, !tbaa !9
  store ptr %5, ptr %12, align 8, !tbaa !77
  call void @llvm.lifetime.start.p0(i64 8, ptr %13) #9
  %22 = load ptr, ptr %7, align 8, !tbaa !14
  %23 = getelementptr inbounds nuw %struct.VVCLocalContext, ptr %22, i32 0, i32 24
  %24 = load ptr, ptr %23, align 8, !tbaa !39
  store ptr %24, ptr %13, align 8, !tbaa !78
  call void @llvm.lifetime.start.p0(i64 8, ptr %14) #9
  %25 = load ptr, ptr %13, align 8, !tbaa !78
  %26 = getelementptr inbounds nuw %struct.VVCFrameContext, ptr %25, i32 0, i32 17
  %27 = getelementptr inbounds nuw %struct.anon.1, ptr %26, i32 0, i32 20
  %28 = load ptr, ptr %27, align 8, !tbaa !79
  store ptr %28, ptr %14, align 8, !tbaa !77
  call void @llvm.lifetime.start.p0(i64 4, ptr %15) #9
  %29 = load ptr, ptr %13, align 8, !tbaa !78
  %30 = getelementptr inbounds nuw %struct.VVCFrameContext, ptr %29, i32 0, i32 4
  %31 = getelementptr inbounds nuw %struct.VVCFrameParamSets, ptr %30, i32 0, i32 1
  %32 = load ptr, ptr %31, align 8, !tbaa !80
  %33 = getelementptr inbounds nuw %struct.VVCPPS, ptr %32, i32 0, i32 12
  %34 = load i16, ptr %33, align 8, !tbaa !81
  %35 = zext i16 %34 to i32
  store i32 %35, ptr %15, align 4, !tbaa !9
  call void @llvm.lifetime.start.p0(i64 4, ptr %16) #9
  store i32 4, ptr %16, align 4, !tbaa !9
  call void @llvm.lifetime.start.p0(i64 4, ptr %17) #9
  store i32 0, ptr %17, align 4, !tbaa !9
  br label %36

36:                                               ; preds = %69, %6
  %37 = load i32, ptr %17, align 4, !tbaa !9
  %38 = load i32, ptr %11, align 4, !tbaa !9
  %39 = icmp slt i32 %37, %38
  br i1 %39, label %41, label %40

40:                                               ; preds = %36
  store i32 2, ptr %18, align 4
  call void @llvm.lifetime.end.p0(i64 4, ptr %17) #9
  br label %72

41:                                               ; preds = %36
  call void @llvm.lifetime.start.p0(i64 4, ptr %19) #9
  store i32 0, ptr %19, align 4, !tbaa !9
  br label %42

42:                                               ; preds = %65, %41
  %43 = load i32, ptr %19, align 4, !tbaa !9
  %44 = load i32, ptr %10, align 4, !tbaa !9
  %45 = icmp slt i32 %43, %44
  br i1 %45, label %47, label %46

46:                                               ; preds = %42
  store i32 5, ptr %18, align 4
  call void @llvm.lifetime.end.p0(i64 4, ptr %19) #9
  br label %68

47:                                               ; preds = %42
  call void @llvm.lifetime.start.p0(i64 4, ptr %20) #9
  %48 = load i32, ptr %8, align 4, !tbaa !9
  %49 = load i32, ptr %19, align 4, !tbaa !9
  %50 = add nsw i32 %48, %49
  store i32 %50, ptr %20, align 4, !tbaa !9
  call void @llvm.lifetime.start.p0(i64 4, ptr %21) #9
  %51 = load i32, ptr %9, align 4, !tbaa !9
  %52 = load i32, ptr %17, align 4, !tbaa !9
  %53 = add nsw i32 %51, %52
  store i32 %53, ptr %21, align 4, !tbaa !9
  %54 = load ptr, ptr %14, align 8, !tbaa !77
  %55 = load i32, ptr %21, align 4, !tbaa !9
  %56 = ashr i32 %55, 2
  %57 = load i32, ptr %15, align 4, !tbaa !9
  %58 = mul nsw i32 %56, %57
  %59 = load i32, ptr %20, align 4, !tbaa !9
  %60 = ashr i32 %59, 2
  %61 = add nsw i32 %58, %60
  %62 = sext i32 %61 to i64
  %63 = getelementptr inbounds %struct.MvField, ptr %54, i64 %62
  %64 = load ptr, ptr %12, align 8, !tbaa !77
  call void @llvm.memcpy.p0.p0.i64(ptr align 8 %63, ptr align 8 %64, i64 24, i1 false), !tbaa.struct !85
  call void @llvm.lifetime.end.p0(i64 4, ptr %21) #9
  call void @llvm.lifetime.end.p0(i64 4, ptr %20) #9
  br label %65

65:                                               ; preds = %47
  %66 = load i32, ptr %19, align 4, !tbaa !9
  %67 = add nsw i32 %66, 4
  store i32 %67, ptr %19, align 4, !tbaa !9
  br label %42, !llvm.loop !86

68:                                               ; preds = %46
  br label %69

69:                                               ; preds = %68
  %70 = load i32, ptr %17, align 4, !tbaa !9
  %71 = add nsw i32 %70, 4
  store i32 %71, ptr %17, align 4, !tbaa !9
  br label %36, !llvm.loop !87

72:                                               ; preds = %40
  call void @llvm.lifetime.end.p0(i64 4, ptr %16) #9
  call void @llvm.lifetime.end.p0(i64 4, ptr %15) #9
  call void @llvm.lifetime.end.p0(i64 8, ptr %14) #9
  call void @llvm.lifetime.end.p0(i64 8, ptr %13) #9
  ret void
}

; Function Attrs: nounwind uwtable
define void @ff_vvc_store_mvf(ptr noundef %0, ptr noundef %1) #0 {
  %3 = alloca ptr, align 8
  %4 = alloca ptr, align 8
  %5 = alloca ptr, align 8
  store ptr %0, ptr %3, align 8, !tbaa !14
  store ptr %1, ptr %4, align 8, !tbaa !77
  call void @llvm.lifetime.start.p0(i64 8, ptr %5) #9
  %6 = load ptr, ptr %3, align 8, !tbaa !14
  %7 = getelementptr inbounds nuw %struct.VVCLocalContext, ptr %6, i32 0, i32 18
  %8 = load ptr, ptr %7, align 8, !tbaa !90
  store ptr %8, ptr %5, align 8, !tbaa !91
  %9 = load ptr, ptr %3, align 8, !tbaa !14
  %10 = load ptr, ptr %5, align 8, !tbaa !91
  %11 = getelementptr inbounds nuw %struct.CodingUnit, ptr %10, i32 0, i32 1
  %12 = load i32, ptr %11, align 4, !tbaa !108
  %13 = load ptr, ptr %5, align 8, !tbaa !91
  %14 = getelementptr inbounds nuw %struct.CodingUnit, ptr %13, i32 0, i32 2
  %15 = load i32, ptr %14, align 8, !tbaa !109
  %16 = load ptr, ptr %5, align 8, !tbaa !91
  %17 = getelementptr inbounds nuw %struct.CodingUnit, ptr %16, i32 0, i32 3
  %18 = load i32, ptr %17, align 4, !tbaa !107
  %19 = load ptr, ptr %5, align 8, !tbaa !91
  %20 = getelementptr inbounds nuw %struct.CodingUnit, ptr %19, i32 0, i32 4
  %21 = load i32, ptr %20, align 8, !tbaa !101
  %22 = load ptr, ptr %4, align 8, !tbaa !77
  call void @ff_vvc_set_mvf(ptr noundef %9, i32 noundef %12, i32 noundef %15, i32 noundef %18, i32 noundef %21, ptr noundef %22)
  call void @llvm.lifetime.end.p0(i64 8, ptr %5) #9
  ret void
}