; Function Attrs: nofree norecurse nosync nounwind memory(readwrite, inaccessiblemem: none) uwtable
define void @ff_vvc_store_mvf(ptr noundef readonly captures(none) %0, ptr noundef readonly captures(none) %1) local_unnamed_addr #4 {
  %3 = getelementptr inbounds nuw i8, ptr %0, i64 4547736
  %4 = load ptr, ptr %3, align 8, !tbaa !80
  %5 = getelementptr inbounds nuw i8, ptr %4, i64 4
  %6 = load i32, ptr %5, align 4, !tbaa !90
  %7 = getelementptr inbounds nuw i8, ptr %4, i64 8
  %8 = load i32, ptr %7, align 8, !tbaa !91
  %9 = getelementptr inbounds nuw i8, ptr %4, i64 12
  %10 = load i32, ptr %9, align 4, !tbaa !89
  %11 = getelementptr inbounds nuw i8, ptr %4, i64 16
  %12 = load i32, ptr %11, align 8, !tbaa !83
  %13 = getelementptr inbounds nuw i8, ptr %0, i64 4580552
  %14 = load ptr, ptr %13, align 8, !tbaa !30
  %15 = getelementptr inbounds nuw i8, ptr %14, i64 21576
  %16 = load ptr, ptr %15, align 8, !tbaa !71
  %17 = getelementptr inbounds nuw i8, ptr %14, i64 1936
  %18 = load ptr, ptr %17, align 8, !tbaa !72
  %19 = getelementptr inbounds nuw i8, ptr %18, i64 4048
  %20 = load i16, ptr %19, align 8, !tbaa !73
  %21 = zext i16 %20 to i32
  %22 = icmp sgt i32 %12, 0
  %23 = icmp sgt i32 %10, 0
  %or.cond.i = and i1 %23, %22
  br i1 %or.cond.i, label %.preheader.us.i, label %ff_vvc_set_mvf.exit

.preheader.us.i:                                  ; preds = %2, %._crit_edge.us.i
  %.019.us.i = phi i32 [ %35, %._crit_edge.us.i ], [ 0, %2 ]
  %24 = add nsw i32 %.019.us.i, %8
  %25 = ashr i32 %24, 2
  %26 = mul nsw i32 %25, %21
  br label %27

27:                                               ; preds = %27, %.preheader.us.i
  %.01718.us.i = phi i32 [ 0, %.preheader.us.i ], [ %33, %27 ]
  %28 = add nsw i32 %.01718.us.i, %6
  %29 = ashr i32 %28, 2
  %30 = add nsw i32 %29, %26
  %31 = sext i32 %30 to i64
  %32 = getelementptr inbounds %struct.MvField, ptr %16, i64 %31
  tail call void @llvm.memcpy.p0.p0.i64(ptr noundef nonnull align 8 dereferenceable(24) %32, ptr noundef nonnull readonly align 8 dereferenceable(24) %1, i64 24, i1 false), !tbaa.struct !77
  %33 = add nuw nsw i32 %.01718.us.i, 4
  %34 = icmp slt i32 %33, %10
  br i1 %34, label %27, label %._crit_edge.us.i, !llvm.loop !78

._crit_edge.us.i:                                 ; preds = %27
  %35 = add nuw nsw i32 %.019.us.i, 4
  %36 = icmp slt i32 %35, %12
  br i1 %36, label %.preheader.us.i, label %ff_vvc_set_mvf.exit, !llvm.loop !79

ff_vvc_set_mvf.exit:                              ; preds = %._crit_edge.us.i, %2
  ret void
}